target datalayout = "e-m:e-p270:32:32-p271:32:32-p272:64:64-i64:64-i128:128-f80:128-n8:16:32:64-S128"
target triple = "x86_64-pc-linux-gnu"

%struct.AVRational = type { i32, i32 }
%struct.AVCodecContext = type { ptr, i32, i32, ptr, i32, i32, ptr, ptr, ptr, i64, i32, i32, ptr, i32, %struct.AVRational, %struct.AVRational, %struct.AVRational, i32, i32, i32, i32, i32, %struct.AVRational, i32, i32, i32, i32, i32, i32, i32, i32, i32, i32, i32, ptr, ptr, i32, float, float, float, float, float, float, float, float, float, i32, i32, i32, i32, i32, i32, i32, i32, i32, i32, i32, i32, ptr, ptr, ptr, i32, i32, i32, i32, i32, i32, i32, i32, i32, i32, %struct.AVChannelLayout, i32, i32, i32, i32, i32, i32, i32, i32, ptr, i32, i32, i32, float, float, i32, i32, i32, i32, i32, ptr, i64, i64, float, float, i32, i32, ptr, ptr, i32, i32, i32, i32, i32, ptr, ptr, ptr, ptr, i32, i32, [8 x i64], i32, i32, i32, i32, i32, i32, i32, ptr, ptr, i32, i32, i32, i32, i32, i32, i32, i32, i32, i32, ptr, ptr, i32, i32, ptr, ptr, ptr, ptr, i32, i32, i64, i32, i32, i64, ptr, i64, ptr, i32, ptr, i32 }
%struct.AVChannelLayout = type { i32, i32, %union.anon, ptr }
%union.anon = type { i64 }
%struct.FFHWBaseEncodeContext = type { ptr, ptr, ptr, i32, i32, i32, i32, i32, i32, ptr, ptr, ptr, ptr, ptr, ptr, ptr, ptr, [2 x ptr], i32, i64, i64, i64, i64, i64, i64, i64, [112 x i64], i32, i32, i32, i32, i32, i32, i32, i32, i32, i32, i32, i32, i32, i32, i32, i32, ptr, i32, ptr, i32, ptr }
%struct.AVHWFramesContext = type { ptr, ptr, ptr, ptr, ptr, ptr, ptr, i32, i32, i32, i32, i32 }
%struct.AVBufferRef = type { ptr, ptr, i64 }

@.str.14 = private unnamed_addr constant [75 x i8] c"A hardware frames reference is required to associate the encoding device.\0A\00", align 1

; Function Attrs: nounwind uwtable
define i32 @ff_hw_base_encode_init(ptr noundef %0, ptr noundef %1) #0 {
  %3 = alloca i32, align 4
  %4 = alloca ptr, align 8
  %5 = alloca ptr, align 8
  store ptr %0, ptr %4, align 8, !tbaa !9
  store ptr %1, ptr %5, align 8, !tbaa !4
  %6 = load ptr, ptr %4, align 8, !tbaa !9
  %7 = load ptr, ptr %5, align 8, !tbaa !4
  %8 = getelementptr inbounds nuw %struct.FFHWBaseEncodeContext, ptr %7, i32 0, i32 1
  store ptr %6, ptr %8, align 8, !tbaa !151
  %9 = call ptr @av_frame_alloc()
  %10 = load ptr, ptr %5, align 8, !tbaa !4
  %11 = getelementptr inbounds nuw %struct.FFHWBaseEncodeContext, ptr %10, i32 0, i32 43
  store ptr %9, ptr %11, align 8, !tbaa !67
  %12 = load ptr, ptr %5, align 8, !tbaa !4
  %13 = getelementptr inbounds nuw %struct.FFHWBaseEncodeContext, ptr %12, i32 0, i32 43
  %14 = load ptr, ptr %13, align 8, !tbaa !67
  %15 = icmp ne ptr %14, null
  br i1 %15, label %17, label %16

16:                                               ; preds = %2
  store i32 -12, ptr %3, align 4
  br label %74

17:                                               ; preds = %2
  %18 = load ptr, ptr %4, align 8, !tbaa !9
  %19 = getelementptr inbounds nuw %struct.AVCodecContext, ptr %18, i32 0, i32 107
  %20 = load ptr, ptr %19, align 8, !tbaa !158
  %21 = icmp ne ptr %20, null
  br i1 %21, label %24, label %22

22:                                               ; preds = %17
  %23 = load ptr, ptr %4, align 8, !tbaa !9
  call void (ptr, i32, ptr, ...) @av_log(ptr noundef %23, i32 noundef 16, ptr noundef @.str.14)
  store i32 -22, ptr %3, align 4
  br label %74

24:                                               ; preds = %17
  %25 = load ptr, ptr %4, align 8, !tbaa !9
  %26 = getelementptr inbounds nuw %struct.AVCodecContext, ptr %25, i32 0, i32 107
  %27 = load ptr, ptr %26, align 8, !tbaa !158
  %28 = call ptr @av_buffer_ref(ptr noundef %27)
  %29 = load ptr, ptr %5, align 8, !tbaa !4
  %30 = getelementptr inbounds nuw %struct.FFHWBaseEncodeContext, ptr %29, i32 0, i32 11
  store ptr %28, ptr %30, align 8, !tbaa !159
  %31 = load ptr, ptr %5, align 8, !tbaa !4
  %32 = getelementptr inbounds nuw %struct.FFHWBaseEncodeContext, ptr %31, i32 0, i32 11
  %33 = load ptr, ptr %32, align 8, !tbaa !159
  %34 = icmp ne ptr %33, null
  br i1 %34, label %36, label %35

35:                                               ; preds = %24
  store i32 -12, ptr %3, align 4
  br label %74

36:                                               ; preds = %24
  %37 = load ptr, ptr %5, align 8, !tbaa !4
  %38 = getelementptr inbounds nuw %struct.FFHWBaseEncodeContext, ptr %37, i32 0, i32 11
  %39 = load ptr, ptr %38, align 8, !tbaa !159
  %40 = getelementptr inbounds nuw %struct.AVBufferRef, ptr %39, i32 0, i32 1
  %41 = load ptr, ptr %40, align 8, !tbaa !160
  %42 = load ptr, ptr %5, align 8, !tbaa !4
  %43 = getelementptr inbounds nuw %struct.FFHWBaseEncodeContext, ptr %42, i32 0, i32 12
  store ptr %41, ptr %43, align 8, !tbaa !146
  %44 = load ptr, ptr %5, align 8, !tbaa !4
  %45 = getelementptr inbounds nuw %struct.FFHWBaseEncodeContext, ptr %44, i32 0, i32 12
  %46 = load ptr, ptr %45, align 8, !tbaa !146
  %47 = getelementptr inbounds nuw %struct.AVHWFramesContext, ptr %46, i32 0, i32 1
  %48 = load ptr, ptr %47, align 8, !tbaa !163
  %49 = call ptr @av_buffer_ref(ptr noundef %48)
  %50 = load ptr, ptr %5, align 8, !tbaa !4
  %51 = getelementptr inbounds nuw %struct.FFHWBaseEncodeContext, ptr %50, i32 0, i32 9
  store ptr %49, ptr %51, align 8, !tbaa !143
  %52 = load ptr, ptr %5, align 8, !tbaa !4
  %53 = getelementptr inbounds nuw %struct.FFHWBaseEncodeContext, ptr %52, i32 0, i32 9
  %54 = load ptr, ptr %53, align 8, !tbaa !143
  %55 = icmp ne ptr %54, null
  br i1 %55, label %57, label %56

56:                                               ; preds = %36
  store i32 -12, ptr %3, align 4
  br label %74

57:                                               ; preds = %36
  %58 = load ptr, ptr %5, align 8, !tbaa !4
  %59 = getelementptr inbounds nuw %struct.FFHWBaseEncodeContext, ptr %58, i32 0, i32 9
  %60 = load ptr, ptr %59, align 8, !tbaa !143
  %61 = getelementptr inbounds nuw %struct.AVBufferRef, ptr %60, i32 0, i32 1
  %62 = load ptr, ptr %61, align 8, !tbaa !160
  %63 = load ptr, ptr %5, align 8, !tbaa !4
  %64 = getelementptr inbounds nuw %struct.FFHWBaseEncodeContext, ptr %63, i32 0, i32 10
  store ptr %62, ptr %64, align 8, !tbaa !164
  %65 = call ptr @av_packet_alloc()
  %66 = load ptr, ptr %5, align 8, !tbaa !4
  %67 = getelementptr inbounds nuw %struct.FFHWBaseEncodeContext, ptr %66, i32 0, i32 47
  store ptr %65, ptr %67, align 8, !tbaa !75
  %68 = load ptr, ptr %5, align 8, !tbaa !4
  %69 = getelementptr inbounds nuw %struct.FFHWBaseEncodeContext, ptr %68, i32 0, i32 47
  %70 = load ptr, ptr %69, align 8, !tbaa !75
  %71 = icmp ne ptr %70, null
  br i1 %71, label %73, label %72

72:                                               ; preds = %57
  store i32 -12, ptr %3, align 4
  br label %74

73:                                               ; preds = %57
  store i32 0, ptr %3, align 4
  br label %74

74:                                               ; preds = %73, %72, %56, %35, %22, %16
  %75 = load i32, ptr %3, align 4
  ret i32 %75
}