; Function Attrs: nounwind uwtable
define range(i32 -22, 1) i32 @ff_hw_base_encode_init(ptr noundef %0, ptr noundef writeonly captures(none) initializes((8, 16), (1152, 1160)) %1) local_unnamed_addr #1 {
  %3 = getelementptr inbounds nuw i8, ptr %1, i64 8
  store ptr %0, ptr %3, align 8, !tbaa !86
  %4 = tail call ptr @av_frame_alloc() #8
  %5 = getelementptr inbounds nuw i8, ptr %1, i64 1152
  store ptr %4, ptr %5, align 8, !tbaa !61
  %.not = icmp eq ptr %4, null
  br i1 %.not, label %27, label %6

6:                                                ; preds = %2
  %7 = getelementptr inbounds nuw i8, ptr %0, i64 552
  %8 = load ptr, ptr %7, align 8, !tbaa !158
  %.not21 = icmp eq ptr %8, null
  br i1 %.not21, label %9, label %10

9:                                                ; preds = %6
  tail call void (ptr, i32, ptr, ...) @av_log(ptr noundef nonnull %0, i32 noundef 16, ptr noundef nonnull @.str.14) #8
  br label %27

10:                                               ; preds = %6
  %11 = tail call ptr @av_buffer_ref(ptr noundef nonnull %8) #8
  %12 = getelementptr inbounds nuw i8, ptr %1, i64 64
  store ptr %11, ptr %12, align 8, !tbaa !159
  %.not22 = icmp eq ptr %11, null
  br i1 %.not22, label %27, label %13

13:                                               ; preds = %10
  %14 = getelementptr inbounds nuw i8, ptr %11, i64 8
  %15 = load ptr, ptr %14, align 8, !tbaa !160
  %16 = getelementptr inbounds nuw i8, ptr %1, i64 72
  store ptr %15, ptr %16, align 8, !tbaa !147
  %17 = getelementptr inbounds nuw i8, ptr %15, i64 8
  %18 = load ptr, ptr %17, align 8, !tbaa !163
  %19 = tail call ptr @av_buffer_ref(ptr noundef %18) #8
  %20 = getelementptr inbounds nuw i8, ptr %1, i64 48
  store ptr %19, ptr %20, align 8, !tbaa !142
  %.not23 = icmp eq ptr %19, null
  br i1 %.not23, label %27, label %21

21:                                               ; preds = %13
  %22 = getelementptr inbounds nuw i8, ptr %19, i64 8
  %23 = load ptr, ptr %22, align 8, !tbaa !160
  %24 = getelementptr inbounds nuw i8, ptr %1, i64 56
  store ptr %23, ptr %24, align 8, !tbaa !164
  %25 = tail call ptr @av_packet_alloc() #8
  %26 = getelementptr inbounds nuw i8, ptr %1, i64 1184
  store ptr %25, ptr %26, align 8, !tbaa !68
  %.not24 = icmp eq ptr %25, null
  %. = select i1 %.not24, i32 -12, i32 0
  br label %27

27:                                               ; preds = %21, %13, %10, %2, %9
  %.0 = phi i32 [ -22, %9 ], [ -12, %2 ], [ -12, %10 ], [ -12, %13 ], [ %., %21 ]
  ret i32 %.0
}